; Function Attrs: mustprogress uwtable
define void @_ZN6casadi8LinsolQrC2ERKNSt7__cxx1112basic_stringIcSt11char_traitsIcESaIcEEERKNS_8SparsityE(ptr noundef nonnull align 8 dereferenceable(272) %0, ptr noundef nonnull align 8 dereferenceable(32) %1, ptr noundef nonnull align 8 dereferenceable(8) %2) unnamed_addr #4 align 2 personality ptr @__gxx_personality_v0 {
  tail call void @_ZN6casadi14LinsolInternalC2ERKNSt7__cxx1112basic_stringIcSt11char_traitsIcESaIcEEERKNS_8SparsityE(ptr noundef nonnull align 8 dereferenceable(184) %0, ptr noundef nonnull align 8 dereferenceable(32) %1, ptr noundef nonnull align 8 dereferenceable(8) %2)
  store ptr getelementptr inbounds ({ [27 x ptr], [3 x ptr] }, ptr @_ZTVN6casadi8LinsolQrE, i64 0, i32 0, i64 2), ptr %0, align 8
  %4 = getelementptr inbounds i8, ptr %0, i64 168
  store ptr getelementptr inbounds ({ [27 x ptr], [3 x ptr] }, ptr @_ZTVN6casadi8LinsolQrE, i64 0, i32 1, i64 2), ptr %4, align 8
  %5 = getelementptr inbounds i8, ptr %0, i64 184
  %6 = getelementptr inbounds i8, ptr %0, i64 208
  %7 = getelementptr inbounds i8, ptr %0, i64 232
  tail call void @llvm.memset.p0.i64(ptr noundef nonnull align 8 dereferenceable(48) %5, i8 0, i64 48, i1 false)
  invoke void @_ZN6casadi8SparsityC1Ex(ptr noundef nonnull align 8 dereferenceable(8) %7, i64 noundef 0)
          to label %8 unwind label %11

8:                                                ; preds = %3
  %9 = getelementptr inbounds i8, ptr %0, i64 240
  invoke void @_ZN6casadi8SparsityC1Ex(ptr noundef nonnull align 8 dereferenceable(8) %9, i64 noundef 0)
          to label %10 unwind label %13

10:                                               ; preds = %8
  ret void

11:                                               ; preds = %3
  %12 = landingpad { ptr, i32 }
          cleanup
  br label %15

13:                                               ; preds = %8
  %14 = landingpad { ptr, i32 }
          cleanup
  tail call void @_ZN6casadi12SharedObjectD2Ev(ptr noundef nonnull align 8 dereferenceable(8) %7) #21
  br label %15

15:                                               ; preds = %13, %11
  %.pn = phi { ptr, i32 } [ %14, %13 ], [ %12, %11 ]
  %16 = load ptr, ptr %6, align 8
  %.not.i.i.i = icmp eq ptr %16, null
  br i1 %.not.i.i.i, label %_ZNSt6vectorIxSaIxEED2Ev.exit, label %17

17:                                               ; preds = %15
  tail call void @_ZdlPv(ptr noundef nonnull %16) #23
  br label %_ZNSt6vectorIxSaIxEED2Ev.exit

_ZNSt6vectorIxSaIxEED2Ev.exit:                    ; preds = %15, %17
  %18 = load ptr, ptr %5, align 8
  %.not.i.i.i6 = icmp eq ptr %18, null
  br i1 %.not.i.i.i6, label %_ZNSt6vectorIxSaIxEED2Ev.exit7, label %19

19:                                               ; preds = %_ZNSt6vectorIxSaIxEED2Ev.exit
  tail call void @_ZdlPv(ptr noundef nonnull %18) #23
  br label %_ZNSt6vectorIxSaIxEED2Ev.exit7

_ZNSt6vectorIxSaIxEED2Ev.exit7:                   ; preds = %_ZNSt6vectorIxSaIxEED2Ev.exit, %19
  tail call void @_ZN6casadi14LinsolInternalD2Ev(ptr noundef nonnull align 8 dereferenceable(184) %0) #21
  resume { ptr, i32 } %.pn
}